target datalayout = "e-m:e-p270:32:32-p271:32:32-p272:64:64-i64:64-i128:128-f80:128-n8:16:32:64-S128"
target triple = "x86_64-pc-linux-gnu"

%struct.rb_data_type_struct = type { ptr, %struct.anon.12, ptr, ptr, i64 }
%struct.anon.12 = type { ptr, ptr, ptr, ptr, [1 x ptr] }
%struct.rb_ractor_basket = type { %union.anon.13, i64, %union.anon.14 }
%union.anon.13 = type { i32 }
%union.anon.14 = type { %struct.anon.15 }
%struct.anon.15 = type { i64, i8 }
%struct.RBasic = type { i64, i64 }
%struct.rb_ractor_selector = type { ptr, %struct.rb_ractor_basket, ptr }
%struct.RTypedData = type { %struct.RBasic, ptr, i64, ptr }

@ractor_selector_data_type = internal constant %struct.rb_data_type_struct { ptr @.str.80, %struct.anon.12 { ptr @ractor_selector_mark, ptr @ractor_selector_free, ptr @ractor_selector_memsize, ptr null, [1 x ptr] zeroinitializer }, ptr null, ptr null, i64 1 }, align 8

; Function Attrs: inlinehint nounwind sspstrong uwtable
define internal zeroext i1 @RTYPEDDATA_EMBEDDED_P(i64 noundef %0) #4 {
  %2 = alloca i64, align 8
  store i64 %0, ptr %2, align 8, !tbaa !16
  %3 = load i64, ptr %2, align 8, !tbaa !16
  %4 = inttoptr i64 %3 to ptr
  %5 = getelementptr inbounds nuw %struct.RTypedData, ptr %4, i32 0, i32 2
  %6 = load i64, ptr %5, align 8, !tbaa !294
  %7 = and i64 %6, 2
  %8 = icmp ne i64 %7, 0
  ret i1 %8
}

; Function Attrs: inlinehint nounwind sspstrong uwtable
define internal ptr @RTYPEDDATA_GET_DATA(i64 noundef %0) #4 {
  %2 = alloca i64, align 8
  %3 = alloca i64, align 8
  store i64 %0, ptr %2, align 8, !tbaa !16
  call void @llvm.lifetime.start.p0(i64 8, ptr %3) #16
  store i64 32, ptr %3, align 8, !tbaa !16
  %4 = load i64, ptr %2, align 8, !tbaa !16
  %5 = call zeroext i1 @RTYPEDDATA_EMBEDDED_P(i64 noundef %4)
  br i1 %5, label %6, label %10

6:                                                ; preds = %1
  %7 = load i64, ptr %2, align 8, !tbaa !16
  %8 = inttoptr i64 %7 to ptr
  %9 = getelementptr i8, ptr %8, i64 32
  br label %15

10:                                               ; preds = %1
  %11 = load i64, ptr %2, align 8, !tbaa !16
  %12 = inttoptr i64 %11 to ptr
  %13 = getelementptr inbounds nuw %struct.RTypedData, ptr %12, i32 0, i32 3
  %14 = load ptr, ptr %13, align 8, !tbaa !289
  br label %15

15:                                               ; preds = %10, %6
  %16 = phi ptr [ %9, %6 ], [ %14, %10 ]
  call void @llvm.lifetime.end.p0(i64 8, ptr %3) #16
  ret ptr %16
}

; Function Attrs: nounwind sspstrong uwtable
define internal i64 @ractor_selector_create(i64 noundef %0) #0 {
  %2 = alloca i64, align 8
  %3 = alloca ptr, align 8
  %4 = alloca i64, align 8
  %5 = alloca i64, align 8
  %6 = alloca i64, align 8
  store i64 %0, ptr %2, align 8, !tbaa !16
  call void @llvm.lifetime.start.p0(i64 8, ptr %3) #16
  call void @llvm.lifetime.start.p0(i64 8, ptr %4) #16
  call void @llvm.lifetime.start.p0(i64 8, ptr %5) #16
  %7 = load i64, ptr %2, align 8, !tbaa !16
  %8 = call i64 @rb_data_typed_object_zalloc(i64 noundef %7, i64 noundef 48, ptr noundef @ractor_selector_data_type)
  store i64 %8, ptr %5, align 8, !tbaa !16
  %9 = load i64, ptr %5, align 8, !tbaa !16
  %10 = call ptr @RTYPEDDATA_GET_DATA(i64 noundef %9)
  store ptr %10, ptr %3, align 8, !tbaa !134
  %11 = load i64, ptr %5, align 8, !tbaa !16
  store i64 %11, ptr %6, align 8, !tbaa !16
  call void @llvm.lifetime.end.p0(i64 8, ptr %5) #16
  %12 = load i64, ptr %6, align 8, !tbaa !16
  store i64 %12, ptr %4, align 8, !tbaa !16
  %13 = load ptr, ptr %3, align 8, !tbaa !134
  %14 = getelementptr inbounds nuw %struct.rb_ractor_selector, ptr %13, i32 0, i32 1
  %15 = getelementptr inbounds nuw %struct.rb_ractor_basket, ptr %14, i32 0, i32 0
  store i32 6, ptr %15, align 8, !tbaa !104
  %16 = call ptr @rb_st_init_numtable()
  %17 = load ptr, ptr %3, align 8, !tbaa !134
  %18 = getelementptr inbounds nuw %struct.rb_ractor_selector, ptr %17, i32 0, i32 2
  store ptr %16, ptr %18, align 8, !tbaa !136
  %19 = load i64, ptr %4, align 8, !tbaa !16
  call void @llvm.lifetime.end.p0(i64 8, ptr %4) #16
  call void @llvm.lifetime.end.p0(i64 8, ptr %3) #16
  ret i64 %19
}

; Function Attrs: nounwind sspstrong uwtable
define internal i64 @ractor_selector_new(i32 noundef %0, ptr noundef %1, i64 noundef %2) #0 {
  %4 = alloca i32, align 4
  %5 = alloca ptr, align 8
  %6 = alloca i64, align 8
  %7 = alloca i64, align 8
  %8 = alloca i32, align 4
  store i32 %0, ptr %4, align 4, !tbaa !14
  store ptr %1, ptr %5, align 8, !tbaa !112
  store i64 %2, ptr %6, align 8, !tbaa !16
  call void @llvm.lifetime.start.p0(i64 8, ptr %7) #16
  %9 = load i64, ptr %6, align 8, !tbaa !16
  %10 = call i64 @ractor_selector_create(i64 noundef %9)
  store i64 %10, ptr %7, align 8, !tbaa !16
  call void @llvm.lifetime.start.p0(i64 4, ptr %8) #16
  store i32 0, ptr %8, align 4, !tbaa !14
  br label %11

11:                                               ; preds = %24, %3
  %12 = load i32, ptr %8, align 4, !tbaa !14
  %13 = load i32, ptr %4, align 4, !tbaa !14
  %14 = icmp slt i32 %12, %13
  br i1 %14, label %16, label %15

15:                                               ; preds = %11
  call void @llvm.lifetime.end.p0(i64 4, ptr %8) #16
  br label %27

16:                                               ; preds = %11
  %17 = load i64, ptr %7, align 8, !tbaa !16
  %18 = load ptr, ptr %5, align 8, !tbaa !112
  %19 = load i32, ptr %8, align 4, !tbaa !14
  %20 = sext i32 %19 to i64
  %21 = getelementptr i64, ptr %18, i64 %20
  %22 = load i64, ptr %21, align 8, !tbaa !16
  %23 = call i64 @ractor_selector_add(i64 noundef %17, i64 noundef %22)
  br label %24

24:                                               ; preds = %16
  %25 = load i32, ptr %8, align 4, !tbaa !14
  %26 = add i32 %25, 1
  store i32 %26, ptr %8, align 4, !tbaa !14
  br label %11, !llvm.loop !133

27:                                               ; preds = %15
  %28 = load i64, ptr %7, align 8, !tbaa !16
  call void @llvm.lifetime.end.p0(i64 8, ptr %7) #16
  ret i64 %28
}