; Function Attrs: nounwind sspstrong uwtable
define internal i64 @ractor_selector_new(i32 noundef %0, ptr noundef readonly captures(none) %1, i64 noundef %2) #0 {
  %4 = tail call i64 @rb_data_typed_object_zalloc(i64 noundef %2, i64 noundef 48, ptr noundef nonnull @ractor_selector_data_type) #19
  %5 = inttoptr i64 %4 to ptr
  %6 = getelementptr inbounds nuw i8, ptr %5, i64 24
  %7 = load i64, ptr %6, align 8, !tbaa !134
  %8 = and i64 %7, 2
  %.not.i.i = icmp eq i64 %8, 0
  %9 = getelementptr i8, ptr %5, i64 32
  br i1 %.not.i.i, label %10, label %ractor_selector_create.exit

10:                                               ; preds = %3
  %11 = load ptr, ptr %9, align 8, !tbaa !137
  br label %ractor_selector_create.exit

ractor_selector_create.exit:                      ; preds = %3, %10
  %12 = phi ptr [ %11, %10 ], [ %9, %3 ]
  %13 = getelementptr inbounds nuw i8, ptr %12, i64 8
  store i32 6, ptr %13, align 8, !tbaa !100
  %14 = tail call ptr @rb_st_init_numtable() #19
  %15 = getelementptr inbounds nuw i8, ptr %12, i64 40
  store ptr %14, ptr %15, align 8, !tbaa !138
  %16 = icmp sgt i32 %0, 0
  br i1 %16, label %.lr.ph.preheader, label %._crit_edge

.lr.ph.preheader:                                 ; preds = %ractor_selector_create.exit
  %wide.trip.count = zext nneg i32 %0 to i64
  br label %.lr.ph

._crit_edge:                                      ; preds = %.lr.ph, %ractor_selector_create.exit
  ret i64 %4

.lr.ph:                                           ; preds = %.lr.ph.preheader, %.lr.ph
  %indvars.iv = phi i64 [ 0, %.lr.ph.preheader ], [ %indvars.iv.next, %.lr.ph ]
  %17 = getelementptr i64, ptr %1, i64 %indvars.iv
  %18 = load i64, ptr %17, align 8, !tbaa !80
  %19 = tail call i64 @ractor_selector_add(i64 noundef %4, i64 noundef %18)
  %indvars.iv.next = add nuw nsw i64 %indvars.iv, 1
  %exitcond.not = icmp eq i64 %indvars.iv.next, %wide.trip.count
  br i1 %exitcond.not, label %._crit_edge, label %.lr.ph, !llvm.loop !140
}